; ModuleID = 'source-C-CXX/10/407.c'
source_filename = "source-C-CXX/10/407.c"
target datalayout = "e-m:e-p270:32:32-p271:32:32-p272:64:64-i64:64-f80:128-n8:16:32:64-S128"
target triple = "x86_64-pc-linux-gnu"

@.str = private unnamed_addr constant [7 x i8] c"%d%d%d\00", align 1
@.str.1 = private unnamed_addr constant [3 x i8] c"%d\00", align 1

; Function Attrs: nofree nounwind sspstrong uwtable
define dso_local i32 @main() local_unnamed_addr #0 {
  %1 = alloca i32, align 4
  %2 = alloca i32, align 4
  %3 = alloca i32, align 4
  %4 = bitcast i32* %1 to i8*
  call void @llvm.lifetime.start.p0i8(i64 4, i8* nonnull %4) #3
  %5 = bitcast i32* %2 to i8*
  call void @llvm.lifetime.start.p0i8(i64 4, i8* nonnull %5) #3
  %6 = bitcast i32* %3 to i8*
  call void @llvm.lifetime.start.p0i8(i64 4, i8* nonnull %6) #3
  %7 = call i32 (i8*, ...) @__isoc99_scanf(i8* getelementptr inbounds ([7 x i8], [7 x i8]* @.str, i64 0, i64 0), i32* nonnull %1, i32* nonnull %2, i32* nonnull %3)
  %8 = load i32, i32* %1, align 4, !tbaa !5
  %9 = and i32 %8, 3
  %10 = icmp eq i32 %9, 0
  br i1 %10, label %11, label %18

11:                                               ; preds = %0
  %12 = srem i32 %8, 100
  %13 = icmp eq i32 %12, 0
  br i1 %13, label %14, label %18

14:                                               ; preds = %11
  %15 = srem i32 %8, 400
  %16 = icmp eq i32 %15, 0
  %17 = select i1 %16, i32 29, i32 28
  br label %18

18:                                               ; preds = %0, %11, %14
  %19 = phi i32 [ %17, %14 ], [ 29, %11 ], [ 28, %0 ]
  %20 = load i32, i32* %2, align 4, !tbaa !5
  switch i32 %20, label %62 [
    i32 1, label %21
    i32 2, label %23
    i32 3, label %26
    i32 4, label %30
    i32 5, label %34
    i32 6, label %38
    i32 7, label %42
    i32 8, label %46
    i32 9, label %50
    i32 10, label %54
    i32 11, label %58
  ]

21:                                               ; preds = %18
  %22 = load i32, i32* %3, align 4, !tbaa !5
  br label %66

23:                                               ; preds = %18
  %24 = load i32, i32* %3, align 4, !tbaa !5
  %25 = add nsw i32 %24, 31
  br label %66

26:                                               ; preds = %18
  %27 = load i32, i32* %3, align 4, !tbaa !5
  %28 = add nuw nsw i32 %19, 31
  %29 = add i32 %28, %27
  br label %66

30:                                               ; preds = %18
  %31 = load i32, i32* %3, align 4, !tbaa !5
  %32 = add nuw nsw i32 %19, 62
  %33 = add i32 %32, %31
  br label %66

34:                                               ; preds = %18
  %35 = load i32, i32* %3, align 4, !tbaa !5
  %36 = add nuw nsw i32 %19, 92
  %37 = add i32 %36, %35
  br label %66

38:                                               ; preds = %18
  %39 = load i32, i32* %3, align 4, !tbaa !5
  %40 = add nuw nsw i32 %19, 123
  %41 = add i32 %40, %39
  br label %66

42:                                               ; preds = %18
  %43 = load i32, i32* %3, align 4, !tbaa !5
  %44 = add nuw nsw i32 %19, 153
  %45 = add i32 %44, %43
  br label %66

46:                                               ; preds = %18
  %47 = load i32, i32* %3, align 4, !tbaa !5
  %48 = add nuw nsw i32 %19, 184
  %49 = add i32 %48, %47
  br label %66

50:                                               ; preds = %18
  %51 = load i32, i32* %3, align 4, !tbaa !5
  %52 = add nuw nsw i32 %19, 215
  %53 = add i32 %52, %51
  br label %66

54:                                               ; preds = %18
  %55 = load i32, i32* %3, align 4, !tbaa !5
  %56 = add nuw nsw i32 %19, 245
  %57 = add i32 %56, %55
  br label %66

58:                                               ; preds = %18
  %59 = load i32, i32* %3, align 4, !tbaa !5
  %60 = add nuw nsw i32 %19, 276
  %61 = add i32 %60, %59
  br label %66

62:                                               ; preds = %18
  %63 = load i32, i32* %3, align 4, !tbaa !5
  %64 = add nuw nsw i32 %19, 306
  %65 = add i32 %64, %63
  br label %66

66:                                               ; preds = %62, %58, %54, %50, %46, %42, %38, %34, %30, %26, %23, %21
  %67 = phi i32 [ %65, %62 ], [ %61, %58 ], [ %57, %54 ], [ %53, %50 ], [ %49, %46 ], [ %45, %42 ], [ %41, %38 ], [ %37, %34 ], [ %33, %30 ], [ %29, %26 ], [ %25, %23 ], [ %22, %21 ]
  %68 = call i32 (i8*, ...) @printf(i8* nonnull dereferenceable(1) getelementptr inbounds ([3 x i8], [3 x i8]* @.str.1, i64 0, i64 0), i32 %67)
  call void @llvm.lifetime.end.p0i8(i64 4, i8* nonnull %6) #3
  call void @llvm.lifetime.end.p0i8(i64 4, i8* nonnull %5) #3
  call void @llvm.lifetime.end.p0i8(i64 4, i8* nonnull %4) #3
  ret i32 0
}

; Function Attrs: argmemonly mustprogress nofree nosync nounwind willreturn
declare void @llvm.lifetime.start.p0i8(i64 immarg, i8* nocapture) #1

; Function Attrs: nofree nounwind
declare noundef i32 @__isoc99_scanf(i8* nocapture noundef readonly, ...) local_unnamed_addr #2

; Function Attrs: nofree nounwind
declare noundef i32 @printf(i8* nocapture noundef readonly, ...) local_unnamed_addr #2

; Function Attrs: argmemonly mustprogress nofree nosync nounwind willreturn
declare void @llvm.lifetime.end.p0i8(i64 immarg, i8* nocapture) #1


!llvm.module.flags = !{!0, !1, !2, !3}
!llvm.ident = !{!4}

!0 = !{i32 1, !"wchar_size", i32 4}
!1 = !{i32 7, !"PIC Level", i32 2}
!2 = !{i32 7, !"PIE Level", i32 2}
!3 = !{i32 7, !"uwtable", i32 1}
!4 = !{!"clang version 13.0.0"}
!5 = !{!6, !6, i64 0}
!6 = !{!"int", !7, i64 0}
!7 = !{!"omnipotent char", !8, i64 0}
!8 = !{!"Simple C/C++ TBAA"}
